target datalayout = "e-m:e-p270:32:32-p271:32:32-p272:64:64-i64:64-i128:128-f80:128-n8:16:32:64-S128"
target triple = "x86_64-pc-linux-gnu"

%struct.hb_font_funcs_t = type { %struct.hb_object_header_t, ptr, ptr, %"union.hb_font_funcs_t::get_t" }
%struct.hb_object_header_t = type { %struct.hb_reference_count_t, %struct.hb_atomic_int_t, %struct.hb_atomic_ptr_t }
%struct.hb_reference_count_t = type { %struct.hb_atomic_int_t }
%struct.hb_atomic_int_t = type { i32 }
%struct.hb_atomic_ptr_t = type { ptr }
%"union.hb_font_funcs_t::get_t" = type { %"struct.hb_font_funcs_t::get_t::get_funcs_t" }
%"struct.hb_font_funcs_t::get_t::get_funcs_t" = type { ptr, ptr, ptr, ptr, ptr, ptr, ptr, ptr, ptr, ptr, ptr, ptr, ptr, ptr, ptr, ptr, ptr, ptr, ptr }
%struct.hb_atomic_ptr_t.1 = type { ptr }
%struct.hb_atomic_ptr_t.5 = type { ptr }
%struct.hb_font_t = type { %struct.hb_object_header_t, i32, i32, ptr, ptr, i32, i32, float, float, i8, i32, i32, float, float, float, float, i64, i64, i32, i32, float, i32, i32, ptr, ptr, ptr, ptr, ptr, %struct.hb_shaper_object_dataset_t }
%struct.hb_shaper_object_dataset_t = type { ptr, %struct.hb_shaper_lazy_loader_t, %struct.hb_shaper_lazy_loader_t.2 }
%struct.hb_shaper_lazy_loader_t = type { %struct.hb_lazy_loader_t }
%struct.hb_lazy_loader_t = type { %struct.hb_atomic_ptr_t.1 }
%struct.hb_shaper_lazy_loader_t.2 = type { %struct.hb_lazy_loader_t.3 }
%struct.hb_lazy_loader_t.3 = type { %struct.hb_atomic_ptr_t.5 }
%struct.anon.0 = type { ptr, ptr, ptr, ptr, ptr, ptr, ptr, ptr, ptr, ptr, ptr, ptr, ptr, ptr, ptr, ptr, ptr, ptr, ptr }

; Function Attrs: mustprogress nounwind uwtable
define hidden noundef zeroext i1 @_ZN9hb_font_t12has_func_setEj(ptr noundef nonnull align 8 dereferenceable(192) %0, i32 noundef %1) #1 align 2 {
  %3 = alloca ptr, align 8
  %4 = alloca i32, align 4
  store ptr %0, ptr %3, align 8
  store i32 %1, ptr %4, align 4
  %5 = load ptr, ptr %3, align 8
  %6 = getelementptr inbounds %struct.hb_font_t, ptr %5, i32 0, i32 25
  %7 = load ptr, ptr %6, align 8
  %8 = getelementptr inbounds %struct.hb_font_funcs_t, ptr %7, i32 0, i32 3
  %9 = load i32, ptr %4, align 4
  %10 = zext i32 %9 to i64
  %11 = getelementptr inbounds [19 x ptr], ptr %8, i64 0, i64 %10
  %12 = load ptr, ptr %11, align 8
  %13 = load i32, ptr %4, align 4
  %14 = zext i32 %13 to i64
  %15 = getelementptr inbounds [19 x ptr], ptr getelementptr inbounds (%struct.hb_font_funcs_t, ptr @_ZL22_hb_font_funcs_default, i32 0, i32 3), i64 0, i64 %14
  %16 = load ptr, ptr %15, align 8
  %17 = icmp ne ptr %12, %16
  ret i1 %17
}

; Function Attrs: mustprogress nounwind uwtable
define linkonce_odr hidden noundef i32 @_ZN9hb_font_t23parent_scale_y_distanceEi(ptr noundef nonnull align 8 dereferenceable(192) %0, i32 noundef %1) #1 comdat align 2 {
  %3 = alloca i32, align 4
  %4 = alloca ptr, align 8
  %5 = alloca i32, align 4
  store ptr %0, ptr %4, align 8
  store i32 %1, ptr %5, align 4
  %6 = load ptr, ptr %4, align 8
  %7 = getelementptr inbounds %struct.hb_font_t, ptr %6, i32 0, i32 3
  %8 = load ptr, ptr %7, align 8
  %9 = icmp ne ptr %8, null
  br i1 %9, label %10, label %32

10:                                               ; preds = %2
  %11 = getelementptr inbounds %struct.hb_font_t, ptr %6, i32 0, i32 3
  %12 = load ptr, ptr %11, align 8
  %13 = getelementptr inbounds %struct.hb_font_t, ptr %12, i32 0, i32 6
  %14 = load i32, ptr %13, align 4
  %15 = getelementptr inbounds %struct.hb_font_t, ptr %6, i32 0, i32 6
  %16 = load i32, ptr %15, align 4
  %17 = icmp ne i32 %14, %16
  br i1 %17, label %18, label %32

18:                                               ; preds = %10
  %19 = load i32, ptr %5, align 4
  %20 = sext i32 %19 to i64
  %21 = getelementptr inbounds %struct.hb_font_t, ptr %6, i32 0, i32 6
  %22 = load i32, ptr %21, align 4
  %23 = sext i32 %22 to i64
  %24 = mul nsw i64 %20, %23
  %25 = getelementptr inbounds %struct.hb_font_t, ptr %6, i32 0, i32 3
  %26 = load ptr, ptr %25, align 8
  %27 = getelementptr inbounds %struct.hb_font_t, ptr %26, i32 0, i32 6
  %28 = load i32, ptr %27, align 4
  %29 = sext i32 %28 to i64
  %30 = sdiv i64 %24, %29
  %31 = trunc i64 %30 to i32
  store i32 %31, ptr %3, align 4
  br label %34

32:                                               ; preds = %10, %2
  %33 = load i32, ptr %5, align 4
  store i32 %33, ptr %3, align 4
  br label %34

34:                                               ; preds = %32, %18
  %35 = load i32, ptr %3, align 4
  ret i32 %35
}

; Function Attrs: mustprogress uwtable
define linkonce_odr hidden void @_ZN9hb_font_t20get_glyph_v_advancesEjPKjjPij(ptr noundef nonnull align 8 dereferenceable(192) %0, i32 noundef %1, ptr noundef %2, i32 noundef %3, ptr noundef %4, i32 noundef %5) #0 comdat align 2 {
  %7 = alloca ptr, align 8
  %8 = alloca i32, align 4
  %9 = alloca ptr, align 8
  %10 = alloca i32, align 4
  %11 = alloca ptr, align 8
  %12 = alloca i32, align 4
  store ptr %0, ptr %7, align 8
  store i32 %1, ptr %8, align 4
  store ptr %2, ptr %9, align 8
  store i32 %3, ptr %10, align 4
  store ptr %4, ptr %11, align 8
  store i32 %5, ptr %12, align 4
  %13 = load ptr, ptr %7, align 8
  %14 = getelementptr inbounds %struct.hb_font_t, ptr %13, i32 0, i32 25
  %15 = load ptr, ptr %14, align 8
  %16 = getelementptr inbounds %struct.hb_font_funcs_t, ptr %15, i32 0, i32 3
  %17 = getelementptr inbounds %"struct.hb_font_funcs_t::get_t::get_funcs_t", ptr %16, i32 0, i32 8
  %18 = load ptr, ptr %17, align 8
  %19 = getelementptr inbounds %struct.hb_font_t, ptr %13, i32 0, i32 26
  %20 = load ptr, ptr %19, align 8
  %21 = load i32, ptr %8, align 4
  %22 = load ptr, ptr %9, align 8
  %23 = load i32, ptr %10, align 4
  %24 = load ptr, ptr %11, align 8
  %25 = load i32, ptr %12, align 4
  %26 = getelementptr inbounds %struct.hb_font_t, ptr %13, i32 0, i32 25
  %27 = load ptr, ptr %26, align 8
  %28 = getelementptr inbounds %struct.hb_font_funcs_t, ptr %27, i32 0, i32 1
  %29 = load ptr, ptr %28, align 8
  %30 = icmp ne ptr %29, null
  br i1 %30, label %32, label %31

31:                                               ; preds = %6
  br label %39

32:                                               ; preds = %6
  %33 = getelementptr inbounds %struct.hb_font_t, ptr %13, i32 0, i32 25
  %34 = load ptr, ptr %33, align 8
  %35 = getelementptr inbounds %struct.hb_font_funcs_t, ptr %34, i32 0, i32 1
  %36 = load ptr, ptr %35, align 8
  %37 = getelementptr inbounds %struct.anon.0, ptr %36, i32 0, i32 8
  %38 = load ptr, ptr %37, align 8
  br label %39

39:                                               ; preds = %32, %31
  %40 = phi ptr [ null, %31 ], [ %38, %32 ]
  call void %18(ptr noundef %13, ptr noundef %20, i32 noundef %21, ptr noundef %22, i32 noundef %23, ptr noundef %24, i32 noundef %25, ptr noundef %40)
  ret void
}

; Function Attrs: mustprogress nounwind uwtable
define internal noundef nonnull align 4 dereferenceable(4) ptr @_ZL23StructAtOffsetUnalignedIiERT_Pvj(ptr noundef %0, i32 noundef %1) #1 {
  %3 = alloca ptr, align 8
  %4 = alloca i32, align 4
  store ptr %0, ptr %3, align 8
  store i32 %1, ptr %4, align 4
  %5 = load ptr, ptr %3, align 8
  %6 = load i32, ptr %4, align 4
  %7 = zext i32 %6 to i64
  %8 = getelementptr inbounds i8, ptr %5, i64 %7
  ret ptr %8
}

; Function Attrs: mustprogress nounwind uwtable
define internal noundef nonnull align 4 dereferenceable(4) ptr @_ZL23StructAtOffsetUnalignedIjERKT_PKvj(ptr noundef %0, i32 noundef %1) #1 {
  %3 = alloca ptr, align 8
  %4 = alloca i32, align 4
  store ptr %0, ptr %3, align 8
  store i32 %1, ptr %4, align 4
  %5 = load ptr, ptr %3, align 8
  %6 = load i32, ptr %4, align 4
  %7 = zext i32 %6 to i64
  %8 = getelementptr inbounds i8, ptr %5, i64 %7
  ret ptr %8
}

; Function Attrs: mustprogress uwtable
define linkonce_odr hidden noundef i32 @_ZN9hb_font_t19get_glyph_v_advanceEj(ptr noundef nonnull align 8 dereferenceable(192) %0, i32 noundef %1) #0 comdat align 2 {
  %3 = alloca ptr, align 8
  %4 = alloca i32, align 4
  store ptr %0, ptr %3, align 8
  store i32 %1, ptr %4, align 4
  %5 = load ptr, ptr %3, align 8
  %6 = getelementptr inbounds %struct.hb_font_t, ptr %5, i32 0, i32 25
  %7 = load ptr, ptr %6, align 8
  %8 = getelementptr inbounds %struct.hb_font_funcs_t, ptr %7, i32 0, i32 3
  %9 = getelementptr inbounds %"struct.hb_font_funcs_t::get_t::get_funcs_t", ptr %8, i32 0, i32 6
  %10 = load ptr, ptr %9, align 8
  %11 = getelementptr inbounds %struct.hb_font_t, ptr %5, i32 0, i32 26
  %12 = load ptr, ptr %11, align 8
  %13 = load i32, ptr %4, align 4
  %14 = getelementptr inbounds %struct.hb_font_t, ptr %5, i32 0, i32 25
  %15 = load ptr, ptr %14, align 8
  %16 = getelementptr inbounds %struct.hb_font_funcs_t, ptr %15, i32 0, i32 1
  %17 = load ptr, ptr %16, align 8
  %18 = icmp ne ptr %17, null
  br i1 %18, label %20, label %19

19:                                               ; preds = %2
  br label %27

20:                                               ; preds = %2
  %21 = getelementptr inbounds %struct.hb_font_t, ptr %5, i32 0, i32 25
  %22 = load ptr, ptr %21, align 8
  %23 = getelementptr inbounds %struct.hb_font_funcs_t, ptr %22, i32 0, i32 1
  %24 = load ptr, ptr %23, align 8
  %25 = getelementptr inbounds %struct.anon.0, ptr %24, i32 0, i32 6
  %26 = load ptr, ptr %25, align 8
  br label %27

27:                                               ; preds = %20, %19
  %28 = phi ptr [ null, %19 ], [ %26, %20 ]
  %29 = call noundef i32 %10(ptr noundef %5, ptr noundef %12, i32 noundef %13, ptr noundef %28)
  ret i32 %29
}

; Function Attrs: mustprogress nounwind uwtable
define linkonce_odr hidden noundef zeroext i1 @_ZN9hb_font_t28has_glyph_v_advance_func_setEv(ptr noundef nonnull align 8 dereferenceable(192) %0) #1 comdat align 2 {
  %2 = alloca ptr, align 8
  %3 = alloca ptr, align 8
  %4 = alloca i32, align 4
  store ptr %0, ptr %2, align 8
  %5 = load ptr, ptr %2, align 8
  %6 = getelementptr inbounds %struct.hb_font_t, ptr %5, i32 0, i32 25
  %7 = load ptr, ptr %6, align 8
  store ptr %7, ptr %3, align 8
  store i32 6, ptr %4, align 4
  %8 = load i32, ptr %4, align 4
  %9 = call noundef zeroext i1 @_ZN9hb_font_t12has_func_setEj(ptr noundef nonnull align 8 dereferenceable(192) %5, i32 noundef %8)
  ret i1 %9
}

; Function Attrs: mustprogress uwtable
define internal void @_ZL36hb_font_get_glyph_v_advances_defaultP9hb_font_tPvjPKjjPijS1_(ptr noundef %0, ptr noundef %1, i32 noundef %2, ptr noundef %3, i32 noundef %4, ptr noundef %5, i32 noundef %6, ptr noundef %7) #0 {
  %9 = alloca ptr, align 8
  %10 = alloca ptr, align 8
  %11 = alloca i32, align 4
  %12 = alloca ptr, align 8
  %13 = alloca i32, align 4
  %14 = alloca ptr, align 8
  %15 = alloca i32, align 4
  %16 = alloca ptr, align 8
  %17 = alloca i32, align 4
  %18 = alloca i32, align 4
  store ptr %0, ptr %9, align 8
  store ptr %1, ptr %10, align 8
  store i32 %2, ptr %11, align 4
  store ptr %3, ptr %12, align 8
  store i32 %4, ptr %13, align 4
  store ptr %5, ptr %14, align 8
  store i32 %6, ptr %15, align 4
  store ptr %7, ptr %16, align 8
  %19 = load ptr, ptr %9, align 8
  %20 = call noundef zeroext i1 @_ZN9hb_font_t28has_glyph_v_advance_func_setEv(ptr noundef nonnull align 8 dereferenceable(192) %19)
  br i1 %20, label %21, label %42

21:                                               ; preds = %8
  store i32 0, ptr %17, align 4
  br label %22

22:                                               ; preds = %38, %21
  %23 = load i32, ptr %17, align 4
  %24 = load i32, ptr %11, align 4
  %25 = icmp ult i32 %23, %24
  br i1 %25, label %26, label %41

26:                                               ; preds = %22
  %27 = load ptr, ptr %9, align 8
  %28 = load ptr, ptr %12, align 8
  %29 = load i32, ptr %28, align 4
  %30 = call noundef i32 @_ZN9hb_font_t19get_glyph_v_advanceEj(ptr noundef nonnull align 8 dereferenceable(192) %27, i32 noundef %29)
  %31 = load ptr, ptr %14, align 8
  store i32 %30, ptr %31, align 4
  %32 = load ptr, ptr %12, align 8
  %33 = load i32, ptr %13, align 4
  %34 = call noundef nonnull align 4 dereferenceable(4) ptr @_ZL23StructAtOffsetUnalignedIjERKT_PKvj(ptr noundef %32, i32 noundef %33)
  store ptr %34, ptr %12, align 8
  %35 = load ptr, ptr %14, align 8
  %36 = load i32, ptr %15, align 4
  %37 = call noundef nonnull align 4 dereferenceable(4) ptr @_ZL23StructAtOffsetUnalignedIiERT_Pvj(ptr noundef %35, i32 noundef %36)
  store ptr %37, ptr %14, align 8
  br label %38

38:                                               ; preds = %26
  %39 = load i32, ptr %17, align 4
  %40 = add i32 %39, 1
  store i32 %40, ptr %17, align 4
  br label %22, !llvm.loop !10

41:                                               ; preds = %22
  br label %67

42:                                               ; preds = %8
  %43 = load ptr, ptr %9, align 8
  %44 = getelementptr inbounds %struct.hb_font_t, ptr %43, i32 0, i32 3
  %45 = load ptr, ptr %44, align 8
  %46 = load i32, ptr %11, align 4
  %47 = load ptr, ptr %12, align 8
  %48 = load i32, ptr %13, align 4
  %49 = load ptr, ptr %14, align 8
  %50 = load i32, ptr %15, align 4
  call void @_ZN9hb_font_t20get_glyph_v_advancesEjPKjjPij(ptr noundef nonnull align 8 dereferenceable(192) %45, i32 noundef %46, ptr noundef %47, i32 noundef %48, ptr noundef %49, i32 noundef %50)
  store i32 0, ptr %18, align 4
  br label %51

51:                                               ; preds = %64, %42
  %52 = load i32, ptr %18, align 4
  %53 = load i32, ptr %11, align 4
  %54 = icmp ult i32 %52, %53
  br i1 %54, label %55, label %67

55:                                               ; preds = %51
  %56 = load ptr, ptr %9, align 8
  %57 = load ptr, ptr %14, align 8
  %58 = load i32, ptr %57, align 4
  %59 = call noundef i32 @_ZN9hb_font_t23parent_scale_y_distanceEi(ptr noundef nonnull align 8 dereferenceable(192) %56, i32 noundef %58)
  %60 = load ptr, ptr %14, align 8
  store i32 %59, ptr %60, align 4
  %61 = load ptr, ptr %14, align 8
  %62 = load i32, ptr %15, align 4
  %63 = call noundef nonnull align 4 dereferenceable(4) ptr @_ZL23StructAtOffsetUnalignedIiERT_Pvj(ptr noundef %61, i32 noundef %62)
  store ptr %63, ptr %14, align 8
  br label %64

64:                                               ; preds = %55
  %65 = load i32, ptr %18, align 4
  %66 = add i32 %65, 1
  store i32 %66, ptr %18, align 4
  br label %51, !llvm.loop !11

67:                                               ; preds = %51, %41
  ret void
}